target datalayout = "e-m:e-p270:32:32-p271:32:32-p272:64:64-i64:64-i128:128-f80:128-n8:16:32:64-S128"
target triple = "x86_64-pc-linux-gnu"

%"class.pbrt::GUI" = type { float, i8, %"class.std::set", float, %"class.pbrt::Transform", %"class.pbrt::Vector2", i8, i32, i8, float, float, double, double, ptr, ptr }
%"class.std::set" = type { %"class.std::_Rb_tree" }
%"class.std::_Rb_tree" = type { %"struct.std::_Rb_tree<char, char, std::_Identity<char>, std::less<char>>::_Rb_tree_impl" }
%"struct.std::_Rb_tree<char, char, std::_Identity<char>, std::less<char>>::_Rb_tree_impl" = type { [8 x i8], %"struct.std::_Rb_tree_header" }
%"struct.std::_Rb_tree_header" = type { %"struct.std::_Rb_tree_node_base", i64 }
%"struct.std::_Rb_tree_node_base" = type { i32, ptr, ptr, ptr }
%"class.pbrt::Transform" = type { %"class.pbrt::SquareMatrix.0", %"class.pbrt::SquareMatrix.0" }
%"class.pbrt::SquareMatrix.0" = type { [4 x [4 x float]] }
%"class.pbrt::Vector2" = type { %"class.pbrt::Tuple2" }
%"class.pbrt::Tuple2" = type { i32, i32 }

; Function Attrs: mustprogress nounwind uwtable
define dso_local void @_ZN4pbrt3GUI17cursorPosCallbackEP10GLFWwindowdd(ptr noundef nonnull align 8 dereferenceable(248) %0, ptr noundef %1, double noundef %2, double noundef %3) #3 align 2 {
  %5 = alloca ptr, align 8
  %6 = alloca ptr, align 8
  %7 = alloca double, align 8
  %8 = alloca double, align 8
  store ptr %0, ptr %5, align 8, !tbaa !15
  store ptr %1, ptr %6, align 8, !tbaa !17
  store double %2, ptr %7, align 8, !tbaa !11
  store double %3, ptr %8, align 8, !tbaa !11
  %9 = load ptr, ptr %5, align 8
  %10 = load double, ptr %7, align 8, !tbaa !11
  %11 = getelementptr inbounds nuw %"class.pbrt::GUI", ptr %9, i32 0, i32 11
  %12 = load double, ptr %11, align 8, !tbaa !99
  %13 = fsub double %10, %12
  %14 = fptrunc double %13 to float
  %15 = getelementptr inbounds nuw %"class.pbrt::GUI", ptr %9, i32 0, i32 9
  store float %14, ptr %15, align 8, !tbaa !51
  %16 = getelementptr inbounds nuw %"class.pbrt::GUI", ptr %9, i32 0, i32 12
  %17 = load double, ptr %16, align 8, !tbaa !100
  %18 = load double, ptr %8, align 8, !tbaa !11
  %19 = fsub double %17, %18
  %20 = fptrunc double %19 to float
  %21 = getelementptr inbounds nuw %"class.pbrt::GUI", ptr %9, i32 0, i32 10
  store float %20, ptr %21, align 4, !tbaa !53
  %22 = load double, ptr %7, align 8, !tbaa !11
  %23 = getelementptr inbounds nuw %"class.pbrt::GUI", ptr %9, i32 0, i32 11
  store double %22, ptr %23, align 8, !tbaa !99
  %24 = load double, ptr %8, align 8, !tbaa !11
  %25 = getelementptr inbounds nuw %"class.pbrt::GUI", ptr %9, i32 0, i32 12
  store double %24, ptr %25, align 8, !tbaa !100
  ret void
}