; Function Attrs: mustprogress nofree norecurse nosync nounwind willreturn memory(argmem: readwrite) uwtable
define dso_local void @_ZN4pbrt3GUI17cursorPosCallbackEP10GLFWwindowdd(ptr noundef nonnull align 8 captures(none) dereferenceable(248) initializes((208, 216)) %0, ptr noundef readnone captures(none) %1, double noundef %2, double noundef %3) local_unnamed_addr #8 align 2 {
  %5 = getelementptr inbounds nuw i8, ptr %0, i64 216
  %6 = load double, ptr %5, align 8, !tbaa !177
  %7 = fsub double %2, %6
  %8 = fptrunc double %7 to float
  %9 = getelementptr inbounds nuw i8, ptr %0, i64 208
  store float %8, ptr %9, align 8, !tbaa !48
  %10 = getelementptr inbounds nuw i8, ptr %0, i64 224
  %11 = load double, ptr %10, align 8, !tbaa !178
  %12 = fsub double %11, %3
  %13 = fptrunc double %12 to float
  %14 = getelementptr inbounds nuw i8, ptr %0, i64 212
  store float %13, ptr %14, align 4, !tbaa !50
  store double %2, ptr %5, align 8, !tbaa !177
  store double %3, ptr %10, align 8, !tbaa !178
  ret void
}